target datalayout = "e-m:e-p270:32:32-p271:32:32-p272:64:64-i64:64-i128:128-f80:128-n8:16:32:64-S128"
target triple = "x86_64-pc-linux-gnu"

%struct.prov_gcm_ctx_st = type { i32, i64, i64, i64, i64, i64, i64, i64, i64, i64, i32, i8, [128 x i8], [16 x i8], ptr, ptr, %struct.gcm128_context, ptr }
%struct.gcm128_context = type { %union.anon, %union.anon, %union.anon, %union.anon, %union.anon, %union.anon, [16 x %struct.u128], %struct.gcm_funcs_st, i32, i32, ptr, ptr, [48 x i8] }
%union.anon = type { [2 x i64] }
%struct.u128 = type { i64, i64 }
%struct.gcm_funcs_st = type { ptr, ptr, ptr }

; Function Attrs: nounwind uwtable
define internal i32 @vaes_gcm_aadupdate(ptr noundef %0, ptr noundef %1, i64 noundef %2) #0 {
  %4 = alloca i32, align 4
  %5 = alloca ptr, align 8
  %6 = alloca ptr, align 8
  %7 = alloca i64, align 8
  %8 = alloca ptr, align 8
  %9 = alloca i64, align 8
  %10 = alloca i32, align 4
  %11 = alloca i64, align 8
  %12 = alloca i64, align 8
  %13 = alloca i32, align 4
  store ptr %0, ptr %5, align 8, !tbaa !9
  store ptr %1, ptr %6, align 8, !tbaa !12
  store i64 %2, ptr %7, align 8, !tbaa !3
  call void @llvm.lifetime.start.p0(i64 8, ptr %8) #5
  %14 = load ptr, ptr %5, align 8, !tbaa !9
  %15 = getelementptr inbounds nuw %struct.prov_gcm_ctx_st, ptr %14, i32 0, i32 16
  store ptr %15, ptr %8, align 8, !tbaa !14
  call void @llvm.lifetime.start.p0(i64 8, ptr %9) #5
  %16 = load ptr, ptr %8, align 8, !tbaa !14
  %17 = getelementptr inbounds nuw %struct.gcm128_context, ptr %16, i32 0, i32 3
  %18 = getelementptr inbounds [2 x i64], ptr %17, i64 0, i64 0
  %19 = load i64, ptr %18, align 8, !tbaa !23
  store i64 %19, ptr %9, align 8, !tbaa !26
  call void @llvm.lifetime.start.p0(i64 4, ptr %10) #5
  call void @llvm.lifetime.start.p0(i64 8, ptr %11) #5
  call void @llvm.lifetime.start.p0(i64 8, ptr %12) #5
  %20 = load ptr, ptr %8, align 8, !tbaa !14
  %21 = getelementptr inbounds nuw %struct.gcm128_context, ptr %20, i32 0, i32 3
  %22 = getelementptr inbounds [2 x i64], ptr %21, i64 0, i64 1
  %23 = load i64, ptr %22, align 8, !tbaa !23
  %24 = icmp ugt i64 %23, 0
  br i1 %24, label %25, label %26

25:                                               ; preds = %3
  store i32 0, ptr %4, align 4
  store i32 1, ptr %13, align 4
  br label %137

26:                                               ; preds = %3
  %27 = load i64, ptr %7, align 8, !tbaa !3
  %28 = load i64, ptr %9, align 8, !tbaa !26
  %29 = add i64 %28, %27
  store i64 %29, ptr %9, align 8, !tbaa !26
  %30 = load i64, ptr %9, align 8, !tbaa !26
  %31 = icmp ugt i64 %30, 2305843009213693952
  br i1 %31, label %36, label %32

32:                                               ; preds = %26
  %33 = load i64, ptr %9, align 8, !tbaa !26
  %34 = load i64, ptr %7, align 8, !tbaa !3
  %35 = icmp ult i64 %33, %34
  br i1 %35, label %36, label %37

36:                                               ; preds = %32, %26
  store i32 0, ptr %4, align 4
  store i32 1, ptr %13, align 4
  br label %137

37:                                               ; preds = %32
  %38 = load i64, ptr %9, align 8, !tbaa !26
  %39 = load ptr, ptr %8, align 8, !tbaa !14
  %40 = getelementptr inbounds nuw %struct.gcm128_context, ptr %39, i32 0, i32 3
  %41 = getelementptr inbounds [2 x i64], ptr %40, i64 0, i64 0
  store i64 %38, ptr %41, align 8, !tbaa !23
  %42 = load ptr, ptr %8, align 8, !tbaa !14
  %43 = getelementptr inbounds nuw %struct.gcm128_context, ptr %42, i32 0, i32 9
  %44 = load i32, ptr %43, align 4, !tbaa !24
  store i32 %44, ptr %10, align 4, !tbaa !7
  %45 = load i32, ptr %10, align 4, !tbaa !7
  %46 = icmp ugt i32 %45, 0
  br i1 %46, label %47, label %89

47:                                               ; preds = %37
  br label %48

48:                                               ; preds = %56, %47
  %49 = load i32, ptr %10, align 4, !tbaa !7
  %50 = icmp ugt i32 %49, 0
  br i1 %50, label %51, label %54

51:                                               ; preds = %48
  %52 = load i64, ptr %7, align 8, !tbaa !3
  %53 = icmp ugt i64 %52, 0
  br label %54

54:                                               ; preds = %51, %48
  %55 = phi i1 [ false, %48 ], [ %53, %51 ]
  br i1 %55, label %56, label %76

56:                                               ; preds = %54
  %57 = load ptr, ptr %6, align 8, !tbaa !12
  %58 = getelementptr inbounds nuw i8, ptr %57, i32 1
  store ptr %58, ptr %6, align 8, !tbaa !12
  %59 = load i8, ptr %57, align 1, !tbaa !23
  %60 = zext i8 %59 to i32
  %61 = load ptr, ptr %8, align 8, !tbaa !14
  %62 = getelementptr inbounds nuw %struct.gcm128_context, ptr %61, i32 0, i32 4
  %63 = load i32, ptr %10, align 4, !tbaa !7
  %64 = sub i32 15, %63
  %65 = zext i32 %64 to i64
  %66 = getelementptr inbounds nuw [16 x i8], ptr %62, i64 0, i64 %65
  %67 = load i8, ptr %66, align 1, !tbaa !23
  %68 = zext i8 %67 to i32
  %69 = xor i32 %68, %60
  %70 = trunc i32 %69 to i8
  store i8 %70, ptr %66, align 1, !tbaa !23
  %71 = load i64, ptr %7, align 8, !tbaa !3
  %72 = add i64 %71, -1
  store i64 %72, ptr %7, align 8, !tbaa !3
  %73 = load i32, ptr %10, align 4, !tbaa !7
  %74 = add i32 %73, 1
  %75 = urem i32 %74, 16
  store i32 %75, ptr %10, align 4, !tbaa !7
  br label %48, !llvm.loop !28

76:                                               ; preds = %54
  %77 = load i32, ptr %10, align 4, !tbaa !7
  %78 = icmp eq i32 %77, 0
  br i1 %78, label %79, label %84

79:                                               ; preds = %76
  %80 = load ptr, ptr %8, align 8, !tbaa !14
  %81 = getelementptr inbounds nuw %struct.gcm128_context, ptr %80, i32 0, i32 4
  %82 = getelementptr inbounds [2 x i64], ptr %81, i64 0, i64 0
  %83 = load ptr, ptr %8, align 8, !tbaa !14
  call void @ossl_gcm_gmult_avx512(ptr noundef %82, ptr noundef %83)
  br label %88

84:                                               ; preds = %76
  %85 = load i32, ptr %10, align 4, !tbaa !7
  %86 = load ptr, ptr %8, align 8, !tbaa !14
  %87 = getelementptr inbounds nuw %struct.gcm128_context, ptr %86, i32 0, i32 9
  store i32 %85, ptr %87, align 4, !tbaa !24
  store i32 1, ptr %4, align 4
  store i32 1, ptr %13, align 4
  br label %137

88:                                               ; preds = %79
  br label %89

89:                                               ; preds = %88, %37
  %90 = load i64, ptr %7, align 8, !tbaa !3
  %91 = and i64 %90, -16
  store i64 %91, ptr %12, align 8, !tbaa !3
  %92 = load i64, ptr %12, align 8, !tbaa !3
  %93 = icmp ugt i64 %92, 0
  br i1 %93, label %94, label %104

94:                                               ; preds = %89
  %95 = load ptr, ptr %8, align 8, !tbaa !14
  %96 = load ptr, ptr %6, align 8, !tbaa !12
  %97 = load i64, ptr %12, align 8, !tbaa !3
  call void @ossl_aes_gcm_update_aad_avx512(ptr noundef %95, ptr noundef %96, i64 noundef %97)
  %98 = load i64, ptr %12, align 8, !tbaa !3
  %99 = load ptr, ptr %6, align 8, !tbaa !12
  %100 = getelementptr inbounds nuw i8, ptr %99, i64 %98
  store ptr %100, ptr %6, align 8, !tbaa !12
  %101 = load i64, ptr %12, align 8, !tbaa !3
  %102 = load i64, ptr %7, align 8, !tbaa !3
  %103 = sub i64 %102, %101
  store i64 %103, ptr %7, align 8, !tbaa !3
  br label %104

104:                                              ; preds = %94, %89
  %105 = load i64, ptr %7, align 8, !tbaa !3
  %106 = icmp ugt i64 %105, 0
  br i1 %106, label %107, label %133

107:                                              ; preds = %104
  %108 = load i64, ptr %7, align 8, !tbaa !3
  %109 = trunc i64 %108 to i32
  store i32 %109, ptr %10, align 4, !tbaa !7
  store i64 0, ptr %11, align 8, !tbaa !3
  br label %110

110:                                              ; preds = %129, %107
  %111 = load i64, ptr %11, align 8, !tbaa !3
  %112 = load i64, ptr %7, align 8, !tbaa !3
  %113 = icmp ult i64 %111, %112
  br i1 %113, label %114, label %132

114:                                              ; preds = %110
  %115 = load ptr, ptr %6, align 8, !tbaa !12
  %116 = load i64, ptr %11, align 8, !tbaa !3
  %117 = getelementptr inbounds nuw i8, ptr %115, i64 %116
  %118 = load i8, ptr %117, align 1, !tbaa !23
  %119 = zext i8 %118 to i32
  %120 = load ptr, ptr %8, align 8, !tbaa !14
  %121 = getelementptr inbounds nuw %struct.gcm128_context, ptr %120, i32 0, i32 4
  %122 = load i64, ptr %11, align 8, !tbaa !3
  %123 = sub i64 15, %122
  %124 = getelementptr inbounds nuw [16 x i8], ptr %121, i64 0, i64 %123
  %125 = load i8, ptr %124, align 1, !tbaa !23
  %126 = zext i8 %125 to i32
  %127 = xor i32 %126, %119
  %128 = trunc i32 %127 to i8
  store i8 %128, ptr %124, align 1, !tbaa !23
  br label %129

129:                                              ; preds = %114
  %130 = load i64, ptr %11, align 8, !tbaa !3
  %131 = add i64 %130, 1
  store i64 %131, ptr %11, align 8, !tbaa !3
  br label %110, !llvm.loop !30

132:                                              ; preds = %110
  br label %133

133:                                              ; preds = %132, %104
  %134 = load i32, ptr %10, align 4, !tbaa !7
  %135 = load ptr, ptr %8, align 8, !tbaa !14
  %136 = getelementptr inbounds nuw %struct.gcm128_context, ptr %135, i32 0, i32 9
  store i32 %134, ptr %136, align 4, !tbaa !24
  store i32 1, ptr %4, align 4
  store i32 1, ptr %13, align 4
  br label %137

137:                                              ; preds = %133, %84, %36, %25
  call void @llvm.lifetime.end.p0(i64 8, ptr %12) #5
  call void @llvm.lifetime.end.p0(i64 8, ptr %11) #5
  call void @llvm.lifetime.end.p0(i64 4, ptr %10) #5
  call void @llvm.lifetime.end.p0(i64 8, ptr %9) #5
  call void @llvm.lifetime.end.p0(i64 8, ptr %8) #5
  %138 = load i32, ptr %4, align 4
  ret i32 %138
}